target datalayout = "e-m:e-p270:32:32-p271:32:32-p272:64:64-i64:64-i128:128-f80:128-n8:16:32:64-S128"
target triple = "x86_64-pc-linux-gnu"

%struct.mi_heap_s = type { ptr, ptr, i64, i32, i64, [2 x i64], %struct.mi_random_cxt_s, i64, i64, i64, ptr, i8, i8, [129 x ptr], [75 x %struct.mi_page_queue_s] }
%struct.mi_random_cxt_s = type { [16 x i32], [16 x i32], i32, i8 }
%struct.mi_page_queue_s = type { ptr, ptr, i64 }
%struct.mi_segments_tld_s = type { %struct.mi_segment_queue_s, %struct.mi_segment_queue_s, %struct.mi_page_queue_s, i64, i64, i64, i64, i64, ptr, ptr }
%struct.mi_segment_queue_s = type { ptr, ptr }
%struct.mi_stats_s = type { %struct.mi_stat_count_s, %struct.mi_stat_count_s, %struct.mi_stat_count_s, %struct.mi_stat_count_s, %struct.mi_stat_count_s, %struct.mi_stat_count_s, %struct.mi_stat_count_s, %struct.mi_stat_count_s, %struct.mi_stat_count_s, %struct.mi_stat_count_s, %struct.mi_stat_count_s, %struct.mi_stat_count_s, %struct.mi_stat_count_s, %struct.mi_stat_count_s, %struct.mi_stat_count_s, %struct.mi_stat_counter_s, %struct.mi_stat_counter_s, %struct.mi_stat_counter_s, %struct.mi_stat_counter_s, %struct.mi_stat_counter_s, %struct.mi_stat_counter_s, %struct.mi_stat_counter_s, %struct.mi_stat_counter_s, %struct.mi_stat_counter_s, %struct.mi_stat_counter_s, %struct.mi_stat_counter_s, %struct.mi_stat_counter_s, %struct.mi_stat_counter_s }
%struct.mi_stat_count_s = type { i64, i64, i64, i64 }
%struct.mi_stat_counter_s = type { i64, i64 }
%struct.mi_tld_s = type { i64, i8, ptr, ptr, %struct.mi_segments_tld_s, %struct.mi_stats_s }

; Function Attrs: nounwind uwtable
define hidden void @mi_collect_reduce(i64 noundef %0) #0 {
  %2 = alloca i64, align 8
  %3 = alloca ptr, align 8
  %4 = alloca ptr, align 8
  %5 = alloca i64, align 8
  store i64 %0, ptr %2, align 8, !tbaa !14
  call void @mi_collect(i1 noundef zeroext true) #8
  call void @llvm.lifetime.start.p0(i64 8, ptr %3) #7
  %6 = call ptr @mi_heap_get_default() #8
  store ptr %6, ptr %3, align 8, !tbaa !62
  call void @llvm.lifetime.start.p0(i64 8, ptr %4) #7
  %7 = load ptr, ptr %3, align 8, !tbaa !62
  %8 = getelementptr inbounds nuw %struct.mi_heap_s, ptr %7, i32 0, i32 0
  %9 = load ptr, ptr %8, align 8, !tbaa !65
  %10 = getelementptr inbounds nuw %struct.mi_tld_s, ptr %9, i32 0, i32 4
  store ptr %10, ptr %4, align 8, !tbaa !28
  call void @llvm.lifetime.start.p0(i64 8, ptr %5) #7
  %11 = load i64, ptr %2, align 8, !tbaa !14
  %12 = udiv i64 %11, 4194304
  store i64 %12, ptr %5, align 8, !tbaa !14
  %13 = load i64, ptr %5, align 8, !tbaa !14
  %14 = icmp eq i64 %13, 0
  br i1 %14, label %15, label %17

15:                                               ; preds = %1
  %16 = call i64 @mi_option_get_clamp(i32 noundef 35, i64 noundef 1, i64 noundef 1024) #8
  store i64 %16, ptr %5, align 8, !tbaa !14
  br label %17

17:                                               ; preds = %15, %1
  %18 = load ptr, ptr %3, align 8, !tbaa !62
  %19 = load i64, ptr %5, align 8, !tbaa !14
  %20 = load ptr, ptr %4, align 8, !tbaa !28
  call void @mi_segments_try_abandon_to_target(ptr noundef %18, i64 noundef %19, ptr noundef %20) #8
  call void @llvm.lifetime.end.p0(i64 8, ptr %5) #7
  call void @llvm.lifetime.end.p0(i64 8, ptr %4) #7
  call void @llvm.lifetime.end.p0(i64 8, ptr %3) #7
  ret void
}