; Function Attrs: nounwind uwtable
define hidden void @mi_collect_reduce(i64 noundef %0) local_unnamed_addr #2 {
  tail call void @mi_collect(i1 noundef zeroext true) #8
  %2 = tail call ptr @mi_heap_get_default() #8
  %3 = load ptr, ptr %2, align 8, !tbaa !68
  %4 = lshr i64 %0, 22
  %5 = icmp ult i64 %0, 4194304
  br i1 %5, label %6, label %8

6:                                                ; preds = %1
  %7 = tail call i64 @mi_option_get_clamp(i32 noundef 35, i64 noundef 1, i64 noundef 1024) #8
  br label %8

8:                                                ; preds = %6, %1
  %.0 = phi i64 [ %7, %6 ], [ %4, %1 ]
  %9 = getelementptr inbounds nuw i8, ptr %3, i64 32
  tail call fastcc void @mi_segments_try_abandon_to_target(ptr noundef nonnull %2, i64 noundef %.0, ptr noundef nonnull %9) #7
  ret void
}